; Function Attrs: nounwind uwtable
define ptr @Aig_ManPartSplitOne(ptr noundef %0, ptr noundef readonly captures(none) %1, ptr noundef writeonly captures(none) %2) local_unnamed_addr #2 {
  tail call void @Aig_ManIncrementTravId(ptr noundef %0) #18
  %4 = getelementptr i8, ptr %1, i64 4
  %.val3847 = load i32, ptr %4, align 4, !tbaa !21
  %5 = icmp sgt i32 %.val3847, 0
  br i1 %5, label %.lr.ph, label %.critedge

.lr.ph:                                           ; preds = %3
  %6 = getelementptr i8, ptr %1, i64 8
  %7 = getelementptr i8, ptr %0, i64 312
  br label %8

8:                                                ; preds = %.lr.ph, %8
  %indvars.iv = phi i64 [ 0, %.lr.ph ], [ %indvars.iv.next, %8 ]
  %.val41 = load ptr, ptr %6, align 8, !tbaa !33
  %9 = getelementptr inbounds nuw ptr, ptr %.val41, i64 %indvars.iv
  %10 = load ptr, ptr %9, align 8, !tbaa !32
  %.val43 = load i32, ptr %7, align 8, !tbaa !40
  %11 = getelementptr inbounds nuw i8, ptr %10, i64 32
  store i32 %.val43, ptr %11, align 8, !tbaa !41
  %12 = getelementptr inbounds nuw i8, ptr %10, i64 40
  store ptr null, ptr %12, align 8, !tbaa !42
  %indvars.iv.next = add nuw nsw i64 %indvars.iv, 1
  %.val38 = load i32, ptr %4, align 4, !tbaa !21
  %13 = sext i32 %.val38 to i64
  %14 = icmp slt i64 %indvars.iv.next, %13
  br i1 %14, label %8, label %.critedge, !llvm.loop !45

.critedge:                                        ; preds = %8, %3
  %.val38.lcssa = phi i32 [ %.val3847, %3 ], [ %.val38, %8 ]
  %15 = tail call ptr @Aig_ManStart(i32 noundef %.val38.lcssa) #18
  %16 = tail call noalias dereferenceable_or_null(16) ptr @malloc(i64 noundef 16) #17
  %17 = getelementptr inbounds nuw i8, ptr %16, i64 4
  store i32 0, ptr %17, align 4, !tbaa !26
  store i32 100, ptr %16, align 8, !tbaa !23
  %18 = tail call noalias dereferenceable_or_null(400) ptr @malloc(i64 noundef 400) #17
  %19 = getelementptr inbounds nuw i8, ptr %16, i64 8
  store ptr %18, ptr %19, align 8, !tbaa !25
  %.val3649 = load i32, ptr %4, align 4, !tbaa !21
  %20 = icmp sgt i32 %.val3649, 0
  br i1 %20, label %.lr.ph51, label %.critedge4

.lr.ph51:                                         ; preds = %.critedge
  %21 = getelementptr i8, ptr %1, i64 8
  br label %24

.critedge2.preheader:                             ; preds = %24
  %22 = icmp sgt i32 %.val36, 0
  br i1 %22, label %.lr.ph54, label %.critedge4

.lr.ph54:                                         ; preds = %.critedge2.preheader
  %23 = getelementptr i8, ptr %1, i64 8
  br label %29

24:                                               ; preds = %.lr.ph51, %24
  %indvars.iv57 = phi i64 [ 0, %.lr.ph51 ], [ %indvars.iv.next58, %24 ]
  %.val40 = load ptr, ptr %21, align 8, !tbaa !33
  %25 = getelementptr inbounds nuw ptr, ptr %.val40, i64 %indvars.iv57
  %26 = load ptr, ptr %25, align 8, !tbaa !32
  tail call void @Aig_ManPartSplitOne_rec(ptr noundef %15, ptr noundef %0, ptr noundef %26, ptr noundef nonnull %16)
  %indvars.iv.next58 = add nuw nsw i64 %indvars.iv57, 1
  %.val36 = load i32, ptr %4, align 4, !tbaa !21
  %27 = sext i32 %.val36 to i64
  %28 = icmp slt i64 %indvars.iv.next58, %27
  br i1 %28, label %24, label %.critedge2.preheader, !llvm.loop !46

29:                                               ; preds = %.lr.ph54, %.critedge2
  %.val64 = phi i32 [ %.val36, %.lr.ph54 ], [ %.val, %.critedge2 ]
  %indvars.iv60 = phi i64 [ 0, %.lr.ph54 ], [ %indvars.iv.next61, %.critedge2 ]
  %.val39 = load ptr, ptr %23, align 8, !tbaa !33
  %30 = getelementptr inbounds nuw ptr, ptr %.val39, i64 %indvars.iv60
  %31 = load ptr, ptr %30, align 8, !tbaa !32
  %32 = getelementptr inbounds nuw i8, ptr %31, i64 40
  %33 = load ptr, ptr %32, align 8, !tbaa !42
  %34 = getelementptr i8, ptr %33, i64 24
  %.val44 = load i64, ptr %34, align 8
  %35 = getelementptr i8, ptr %31, i64 24
  %.val45 = load i64, ptr %35, align 8
  %.not.unshifted46 = xor i64 %.val45, %.val44
  %36 = and i64 %.not.unshifted46, 4294967232
  %.not = icmp eq i64 %36, 0
  br i1 %.not, label %.critedge2, label %37

37:                                               ; preds = %29
  %38 = tail call ptr @Aig_ObjCreateCo(ptr noundef %15, ptr noundef nonnull %33) #18
  %39 = getelementptr i8, ptr %31, i64 36
  %.val42 = load i32, ptr %39, align 4, !tbaa !34
  %40 = load i32, ptr %17, align 4, !tbaa !26
  %41 = load i32, ptr %16, align 8, !tbaa !23
  %42 = icmp eq i32 %40, %41
  br i1 %42, label %43, label %.Vec_IntGrow.exit10_crit_edge.i

.Vec_IntGrow.exit10_crit_edge.i:                  ; preds = %37
  %.pre.i = load ptr, ptr %19, align 8, !tbaa !25
  br label %Vec_IntPush.exit

43:                                               ; preds = %37
  %44 = icmp slt i32 %40, 16
  br i1 %44, label %45, label %52

45:                                               ; preds = %43
  %46 = load ptr, ptr %19, align 8, !tbaa !25
  %.not9.i.i = icmp eq ptr %46, null
  br i1 %.not9.i.i, label %49, label %47

47:                                               ; preds = %45
  %48 = tail call dereferenceable_or_null(64) ptr @realloc(ptr noundef nonnull %46, i64 noundef 64) #19
  br label %Vec_IntGrow.exit.i

49:                                               ; preds = %45
  %50 = tail call noalias dereferenceable_or_null(64) ptr @malloc(i64 noundef 64) #17
  br label %Vec_IntGrow.exit.i

Vec_IntGrow.exit.i:                               ; preds = %49, %47
  %51 = phi ptr [ %48, %47 ], [ %50, %49 ]
  store ptr %51, ptr %19, align 8, !tbaa !25
  store i32 16, ptr %16, align 8, !tbaa !23
  br label %Vec_IntPush.exit

52:                                               ; preds = %43
  %53 = shl nuw nsw i32 %40, 1
  %54 = load ptr, ptr %19, align 8, !tbaa !25
  %.not9.i9.i = icmp eq ptr %54, null
  %55 = zext nneg i32 %53 to i64
  %56 = shl nuw nsw i64 %55, 2
  br i1 %.not9.i9.i, label %59, label %57

57:                                               ; preds = %52
  %58 = tail call ptr @realloc(ptr noundef nonnull %54, i64 noundef %56) #19
  br label %61

59:                                               ; preds = %52
  %60 = tail call noalias ptr @malloc(i64 noundef %56) #17
  br label %61

61:                                               ; preds = %59, %57
  %62 = phi ptr [ %58, %57 ], [ %60, %59 ]
  store ptr %62, ptr %19, align 8, !tbaa !25
  store i32 %53, ptr %16, align 8, !tbaa !23
  br label %Vec_IntPush.exit

Vec_IntPush.exit:                                 ; preds = %.Vec_IntGrow.exit10_crit_edge.i, %Vec_IntGrow.exit.i, %61
  %63 = phi ptr [ %.pre.i, %.Vec_IntGrow.exit10_crit_edge.i ], [ %62, %61 ], [ %51, %Vec_IntGrow.exit.i ]
  %64 = load i32, ptr %17, align 4, !tbaa !26
  %65 = add nsw i32 %64, 1
  store i32 %65, ptr %17, align 4, !tbaa !26
  %66 = sext i32 %64 to i64
  %67 = getelementptr inbounds i32, ptr %63, i64 %66
  store i32 %.val42, ptr %67, align 4, !tbaa !35
  %.val.pre = load i32, ptr %4, align 4, !tbaa !21
  br label %.critedge2

.critedge2:                                       ; preds = %29, %Vec_IntPush.exit
  %.val = phi i32 [ %.val64, %29 ], [ %.val.pre, %Vec_IntPush.exit ]
  %indvars.iv.next61 = add nuw nsw i64 %indvars.iv60, 1
  %68 = sext i32 %.val to i64
  %69 = icmp slt i64 %indvars.iv.next61, %68
  br i1 %69, label %29, label %.critedge4, !llvm.loop !47

.critedge4:                                       ; preds = %.critedge2, %.critedge, %.critedge2.preheader
  store ptr %16, ptr %2, align 8, !tbaa !48
  ret ptr %15
}